(dp1
S'output'
p2
S"<type 'exceptions.TypeError'> cannot convert dictionary update sequence element #0 to a sequence"
p3
sS'layer'
p4
S'/Users/nihil/PycharmProjects/untitled/web2py/applications/ang2py/controllers/plugin_angular.py'
p5
sS'code'
p6
S"__author__ = 'nihil'\n\nfrom plugin_angular import jsoned, Message\nfrom operator import isSequenceType\nfrom itertools import chain, imap\n\nclass ValidatorSerializer(object):\n    def serializeIS_LENGTH(self, validator):\n        return None\n\n    def __call__(self, validator):\n        validator_method = getattr(self,'serialize%s' % type(validator).__name__,None)\n        return validator_method and validator_method(validator)\n\n@jsoned\ndef model():\n    if not request.args:\n        raise Message('you have to specify a model like by /%s/plugin_angular/model/<model_name>' % request.application)\n    if not request.args[0] in db:\n        raise Message('model %s not found on %s application' % (request.args[0],request.application))\n    model = db[request.args[0]]\n    return dict((field.name,dict(\n        name = field.label,\n        validators = dict(chain(imap(ValidatorSerializer(),field.requires if isSequenceType(field.requires) else [field.requires]))),\n        comment = field.comment,\n        readable = field.readable,\n        writable = field.writable,\n        type = field.type,\n        w2pwidget = field.widget,\n    )) for field in (\n        getattr(model,field)\n        for field in model.fields\n    ))\n\nresponse._vars=response._caller(model)\n"
p7
sS'snapshot'
p8
(dp9
sS'traceback'
p10
S'Traceback (most recent call last):\n  File "/Users/nihil/PycharmProjects/untitled/web2py/gluon/restricted.py", line 224, in restricted\n    exec ccode in environment\n  File "/Users/nihil/PycharmProjects/untitled/web2py/applications/ang2py/controllers/plugin_angular.py", line 35, in <module>\n  File "/Users/nihil/PycharmProjects/untitled/web2py/gluon/globals.py", line 393, in <lambda>\n    self._caller = lambda f: f()\n  File "applications/ang2py/modules/plugin_angular.py", line 30, in x\n    raise e\nTypeError: cannot convert dictionary update sequence element #0 to a sequence\n'
p11
s.