(dp1
S'output'
p2
S"<type 'exceptions.ImportError'> cannot import name ValidatorSerializer"
p3
sS'layer'
p4
S'/Users/nihil/PycharmProjects/untitled/web2py/applications/ang2py/controllers/plugin_angular.py'
p5
sS'code'
p6
S"__author__ = 'nihil'\n\nfrom plugin_angular import jsoned, Message, ResourceManager, ValidatorSerializer\nfrom operator import isSequenceType\nfrom itertools import chain, imap\n\n\n\n\n@jsoned\ndef model():\n    if not request.args:\n        raise Message('you have to specify a model like by /%s/plugin_angular/model/<model_name>' % request.application)\n    if not request.args[0] in db:\n        raise Message('model %s not found on %s application' % (request.args[0],request.application))\n    model = db[request.args[0]]\n    return dict((field.name,dict(\n        name = field.label,\n        validators = ValidatorSerializer(field.requires if isSequenceType(field.requires) else [field.requires])(),\n        comment = field.comment,\n        readable = field.readable,\n        writable = field.writable,\n        type = field.type.split('(')[0],\n        w2pwidget = field.widget,\n    )) for field in (\n        getattr(model,field)\n        for field in model.fields\n    ))\n\n@jsoned\ndef restful():\n    # return BEAUTIFY(request)\n    if len(request.args)<2:\n        raise HTTP(401,'Resource not defined. please use /%s/%s/restful/<resource name>[/arguments]' % (request.application, request.controller))\n    # get resource name and consume args\n    resource_name = request.args.pop(0)\n    # get method name and consume args\n    method_name = request.args.pop(0)\n    # fetching resource object\n    resource = ResourceManager().resource(resource_name)\n    if not resource:\n        raise HTTP(404,'resource %s not found on this %s.' % (resource_name,request.application))\n    method = getattr(resource,method_name,None)\n    if not method:\n        raise HTTP(404, 'method unknown')\n    return method (*request.args,**request.vars)\n\n@jsoned\ndef query():\n    model = db.__dict__[request.vars.model]\n    fields = (model[field_name] for field_name in request.vars.fields) if 'fields' in request.vars else (model.ALL,)\n    return db().select(*fields)\nresponse._vars=response._caller(restful)\n"
p7
sS'snapshot'
p8
(dp9
S'exception'
p10
(dp11
S'__hash__'
p12
S"<method-wrapper '__hash__' of exceptions.ImportError object>"
p13
sS'__setattr__'
p14
S"<method-wrapper '__setattr__' of exceptions.ImportError object>"
p15
sS'__reduce_ex__'
p16
S'<built-in method __reduce_ex__ of exceptions.ImportError object>'
p17
sS'__getslice__'
p18
S"<method-wrapper '__getslice__' of exceptions.ImportError object>"
p19
sS'__getitem__'
p20
S"<method-wrapper '__getitem__' of exceptions.ImportError object>"
p21
sS'__setstate__'
p22
S'<built-in method __setstate__ of exceptions.ImportError object>'
p23
sS'args'
p24
S"('cannot import name ValidatorSerializer',)"
p25
sS'__reduce__'
p26
S'<built-in method __reduce__ of exceptions.ImportError object>'
p27
sS'__str__'
p28
S"<method-wrapper '__str__' of exceptions.ImportError object>"
p29
sS'__format__'
p30
S'<built-in method __format__ of exceptions.ImportError object>'
p31
sS'__getattribute__'
p32
S"<method-wrapper '__getattribute__' of exceptions.ImportError object>"
p33
sS'__class__'
p34
S"<type 'exceptions.ImportError'>"
p35
sS'__unicode__'
p36
S'<built-in method __unicode__ of exceptions.ImportError object>'
p37
sS'__delattr__'
p38
S"<method-wrapper '__delattr__' of exceptions.ImportError object>"
p39
sS'__subclasshook__'
p40
S'<built-in method __subclasshook__ of type object>'
p41
sS'__repr__'
p42
S"<method-wrapper '__repr__' of exceptions.ImportError object>"
p43
sS'__dict__'
p44
S'{}'
p45
sS'__sizeof__'
p46
S'<built-in method __sizeof__ of exceptions.ImportError object>'
p47
sS'__doc__'
p48
S'"Import can\'t find module, or can\'t find name in module."'
p49
sS'__init__'
p50
S"<method-wrapper '__init__' of exceptions.ImportError object>"
p51
sS'__new__'
p52
S'<built-in method __new__ of type object>'
p53
ssS'evalue'
p54
S'cannot import name ValidatorSerializer'
p55
sS'request'
p56
cgluon.html
XML_unpickle
p57
(S'sE]\x00\x00<div><table><tr><td style="font-weight:bold;vertical-align:top;">ajax</td><td style="vertical-align:top;">:</td><td><div>False</div></td></tr><tr><td style="font-weight:bold;vertical-align:top;">application</td><td style="vertical-align:top;">:</td><td><div>ang2py</div></td></tr><tr><td style="font-weight:bold;vertical-align:top;">args</td><td style="vertical-align:top;">:</td><td><div><table><tr><td><div>person</div></td></tr><tr><td><div>list</div></td></tr></table></div></td></tr><tr><td style="font-weight:bold;vertical-align:top;">cid</td><td style="vertical-align:top;">:</td><td><div>None</div></td></tr><tr><td style="font-weight:bold;vertical-align:top;">client</td><td style="vertical-align:top;">:</td><td><div>127.0.0.1</div></td></tr><tr><td style="font-weight:bold;vertical-align:top;">controller</td><td style="vertical-align:top;">:</td><td><div>plugin_angular</div></td></tr><tr><td style="font-weight:bold;vertical-align:top;">cookies</td><td style="vertical-align:top;">:</td><td><div><table><tr><td style="font-weight:bold;vertical-align:top;">session_id_admin</td><td style="vertical-align:top;">:</td><td><div>127.0.0.1-757acde6-f1bd-4df6-ad89-b9e1fd57b269<table><tr><td style="font-weight:bold;vertical-align:top;">comment</td><td style="vertical-align:top;">:</td><td><div></div></td></tr><tr><td style="font-weight:bold;vertical-align:top;">domain</td><td style="vertical-align:top;">:</td><td><div></div></td></tr><tr><td style="font-weight:bold;vertical-align:top;">expires</td><td style="vertical-align:top;">:</td><td><div></div></td></tr><tr><td style="font-weight:bold;vertical-align:top;">httponly</td><td style="vertical-align:top;">:</td><td><div></div></td></tr><tr><td style="font-weight:bold;vertical-align:top;">max-age</td><td style="vertical-align:top;">:</td><td><div></div></td></tr><tr><td style="font-weight:bold;vertical-align:top;">path</td><td style="vertical-align:top;">:</td><td><div></div></td></tr><tr><td style="font-weight:bold;vertical-align:top;">secure</td><td style="vertical-align:top;">:</td><td><div></div></td></tr><tr><td style="font-weight:bold;vertical-align:top;">version</td><td style="vertical-align:top;">:</td><td><div></div></td></tr></table></div></td></tr><tr><td style="font-weight:bold;vertical-align:top;">session_id_ang2py</td><td style="vertical-align:top;">:</td><td><div>127.0.0.1-40ca869b-7d99-490a-b8e1-3560e6ecc711<table><tr><td style="font-weight:bold;vertical-align:top;">comment</td><td style="vertical-align:top;">:</td><td><div></div></td></tr><tr><td style="font-weight:bold;vertical-align:top;">domain</td><td style="vertical-align:top;">:</td><td><div></div></td></tr><tr><td style="font-weight:bold;vertical-align:top;">expires</td><td style="vertical-align:top;">:</td><td><div></div></td></tr><tr><td style="font-weight:bold;vertical-align:top;">httponly</td><td style="vertical-align:top;">:</td><td><div></div></td></tr><tr><td style="font-weight:bold;vertical-align:top;">max-age</td><td style="vertical-align:top;">:</td><td><div></div></td></tr><tr><td style="font-weight:bold;vertical-align:top;">path</td><td style="vertical-align:top;">:</td><td><div></div></td></tr><tr><td style="font-weight:bold;vertical-align:top;">secure</td><td style="vertical-align:top;">:</td><td><div></div></td></tr><tr><td style="font-weight:bold;vertical-align:top;">version</td><td style="vertical-align:top;">:</td><td><div></div></td></tr></table></div></td></tr><tr><td style="font-weight:bold;vertical-align:top;">session_id_tenant</td><td style="vertical-align:top;">:</td><td><div>127.0.0.1-8cd91da1-2cc9-4922-bd90-f8b2d96676a3<table><tr><td style="font-weight:bold;vertical-align:top;">comment</td><td style="vertical-align:top;">:</td><td><div></div></td></tr><tr><td style="font-weight:bold;vertical-align:top;">domain</td><td style="vertical-align:top;">:</td><td><div></div></td></tr><tr><td style="font-weight:bold;vertical-align:top;">expires</td><td style="vertical-align:top;">:</td><td><div></div></td></tr><tr><td style="font-weight:bold;vertical-align:top;">httponly</td><td style="vertical-align:top;">:</td><td><div></div></td></tr><tr><td style="font-weight:bold;vertical-align:top;">max-age</td><td style="vertical-align:top;">:</td><td><div></div></td></tr><tr><td style="font-weight:bold;vertical-align:top;">path</td><td style="vertical-align:top;">:</td><td><div></div></td></tr><tr><td style="font-weight:bold;vertical-align:top;">secure</td><td style="vertical-align:top;">:</td><td><div></div></td></tr><tr><td style="font-weight:bold;vertical-align:top;">version</td><td style="vertical-align:top;">:</td><td><div></div></td></tr></table></div></td></tr></table></div></td></tr><tr><td style="font-weight:bold;vertical-align:top;">env</td><td style="vertical-align:top;">:</td><td><div><table><tr><td style="font-weight:bold;vertical-align:top;">HTTP_ACCEPT</td><td style="vertical-align:top;">:</td><td><div>text/html,application/xhtml+xml,application/xml;q=0.9,image/webp,*/*;q=0.8</div></td></tr><tr><td style="font-weight:bold;vertical-align:top;">HTTP_ACCEPT_ENCODING</td><td style="vertical-align:top;">:</td><td><div>gzip, deflate, sdch</div></td></tr><tr><td style="font-weight:bold;vertical-align:top;">HTTP_ACCEPT_LANGUAGE</td><td style="vertical-align:top;">:</td><td><div>it-IT,it;q=0.8,en-US;q=0.6,en;q=0.4</div></td></tr><tr><td style="font-weight:bold;vertical-align:top;">HTTP_CACHE_CONTROL</td><td style="vertical-align:top;">:</td><td><div>max-age=0</div></td></tr><tr><td style="font-weight:bold;vertical-align:top;">HTTP_CONNECTION</td><td style="vertical-align:top;">:</td><td><div>keep-alive</div></td></tr><tr><td style="font-weight:bold;vertical-align:top;">HTTP_COOKIE</td><td style="vertical-align:top;">:</td><td><div>__ngDebug=false; session_id_tenant=127.0.0.1-8cd91da1-2cc9-4922-bd90-f8b2d96676a3; session_id_ang2py=127.0.0.1-40ca869b-7d99-490a-b8e1-3560e6ecc711; session_id_admin=127.0.0.1-757acde6-f1bd-4df6-ad89-b9e1fd57b269</div></td></tr><tr><td style="font-weight:bold;vertical-align:top;">HTTP_HOST</td><td style="vertical-align:top;">:</td><td><div>localhost:8000</div></td></tr><tr><td style="font-weight:bold;vertical-align:top;">HTTP_USER_AGENT</td><td style="vertical-align:top;">:</td><td><div>Mozilla/5.0 (Macintosh; Intel Mac OS X 10_10_0) AppleWebKit/537.36 (KHTML, like Gecko) Chrome/40.0.2214.115 Safari/537.36</div></td></tr><tr><td style="font-weight:bold;vertical-align:top;">PATH_INFO</td><td style="vertical-align:top;">:</td><td><div>/ang2py/plugin_angular/restful/person/list</div></td></tr><tr><td style="font-weight:bold;vertical-align:top;">QUERY_STRING</td><td style="vertical-align:top;">:</td><td><div></div></td></tr><tr><td style="font-weight:bold;vertical-align:top;">REMOTE_ADDR</td><td style="vertical-align:top;">:</td><td><div>127.0.0.1</div></td></tr><tr><td style="font-weight:bold;vertical-align:top;">REMOTE_PORT</td><td style="vertical-align:top;">:</td><td><div>59148</div></td></tr><tr><td style="font-weight:bold;vertical-align:top;">REQUEST_METHOD</td><td style="vertical-align:top;">:</td><td><div>GET</div></td></tr><tr><td style="font-weight:bold;vertical-align:top;">SCRIPT_NAME</td><td style="vertical-align:top;">:</td><td><div></div></td></tr><tr><td style="font-weight:bold;vertical-align:top;">SERVER_NAME</td><td style="vertical-align:top;">:</td><td><div>Sarutobi.local</div></td></tr><tr><td style="font-weight:bold;vertical-align:top;">SERVER_PORT</td><td style="vertical-align:top;">:</td><td><div>8000</div></td></tr><tr><td style="font-weight:bold;vertical-align:top;">SERVER_PROTOCOL</td><td style="vertical-align:top;">:</td><td><div>HTTP/1.1</div></td></tr><tr><td style="font-weight:bold;vertical-align:top;">SERVER_SOFTWARE</td><td style="vertical-align:top;">:</td><td><div>Rocket 1.2.6</div></td></tr><tr><td style="font-weight:bold;vertical-align:top;">app_folders</td><td style="vertical-align:top;">:</td><td><div>set([&#x27;/Users/nihil/PycharmProjects/untitled/web2py/applications/admin/&#x27;, &#x27;/Users/nihil/PycharmProjects/untitled/web2py/applications/ang2py/&#x27;])</div></td></tr><tr><td style="font-weight:bold;vertical-align:top;">applications_parent</td><td style="vertical-align:top;">:</td><td><div>/Users/nihil/PycharmProjects/untitled/web2py</div></td></tr><tr><td style="font-weight:bold;vertical-align:top;">cmd_args</td><td style="vertical-align:top;">:</td><td><div><table></table></div></td></tr><tr><td style="font-weight:bold;vertical-align:top;">cmd_options</td><td style="vertical-align:top;">:</td><td><div>&lt;Values at 0x110c9e1b8: {&#x27;verbose&#x27;: False, &#x27;ip&#x27;: &#x27;0.0.0.0&#x27;, &#x27;debuglevel&#x27;: 30, &#x27;with_scheduler&#x27;: False, &#x27;ips&#x27;: [&#x27;fe80::aa20:66ff:fe11:a1e5%en0&#x27;, &#x27;2.236.16.100&#x27;], &#x27;shutdown_timeout&#x27;: 5, &#x27;taskbar&#x27;: False, &#x27;with_coverage&#x27;: False, &#x27;scheduler_groups&#x27;: None, &#x27;port&#x27;: 8000, &#x27;maxthreads&#x27;: None, &#x27;softcron&#x27;: False, &#x27;server_name&#x27;: &#x27;Sarutobi.local&#x27;, &#x27;bpython&#x27;: False, &#x27;nogui&#x27;: False, &#x27;pid_filename&#x27;: &#x27;httpserver.pid&#x27;, &#x27;extcron&#x27;: False, &#x27;runcron&#x27;: False, &#x27;run_system_tests&#x27;: False, &#x27;test&#x27;: None, &#x27;folder&#x27;: &#x27;/Users/nihil/PycharmProjects/untitled/web2py&#x27;, &#x27;config&#x27;: &#x27;&#x27;, &#x27;minthreads&#x27;: 20, &#x27;shell&#x27;: None, &#x27;run&#x27;: &#x27;&#x27;, &#x27;log_filename&#x27;: &#x27;httpserver.log&#x27;, &#x27;profiler_dir&#x27;: None, &#x27;args&#x27;: [&#x27;&#x27;], &#x27;socket_timeout&#x27;: 5, &#x27;ssl_ca_certificate&#x27;: None, &#x27;scheduler&#x27;: None, &#x27;interfaces&#x27;: None, &#x27;ssl_private_key&#x27;: &#x27;&#x27;, &#x27;gae&#x27;: None, &#x27;password&#x27;: &#x27;pippo&#x27;, &#x27;request_queue_size&#x27;: 5, &#x27;ssl_certificate&#x27;: &#x27;&#x27;, &#x27;cronjob&#x27;: False, &#x27;numthreads&#x27;: 20, &#x27;quiet&#x27;: False, &#x27;import_models&#x27;: False, &#x27;timeout&#x27;: 10, &#x27;plain&#x27;: False, &#x27;nobanner&#x27;: False}&gt;</div></td></tr><tr><td style="font-weight:bold;vertical-align:top;">db_sessions</td><td style="vertical-align:top;">:</td><td><div>set([])</div></td></tr><tr><td style="font-weight:bold;vertical-align:top;">debugging</td><td style="vertical-align:top;">:</td><td><div>False</div></td></tr><tr><td style="font-weight:bold;vertical-align:top;">gluon_parent</td><td style="vertical-align:top;">:</td><td><div>/Users/nihil/PycharmProjects/untitled/web2py</div></td></tr><tr><td style="font-weight:bold;vertical-align:top;">http_accept</td><td style="vertical-align:top;">:</td><td><div>text/html,application/xhtml+xml,application/xml;q=0.9,image/webp,*/*;q=0.8</div></td></tr><tr><td style="font-weight:bold;vertical-align:top;">http_accept_encoding</td><td style="vertical-align:top;">:</td><td><div>gzip, deflate, sdch</div></td></tr><tr><td style="font-weight:bold;vertical-align:top;">http_accept_language</td><td style="vertical-align:top;">:</td><td><div>it-IT,it;q=0.8,en-US;q=0.6,en;q=0.4</div></td></tr><tr><td style="font-weight:bold;vertical-align:top;">http_cache_control</td><td style="vertical-align:top;">:</td><td><div>max-age=0</div></td></tr><tr><td style="font-weight:bold;vertical-align:top;">http_connection</td><td style="vertical-align:top;">:</td><td><div>keep-alive</div></td></tr><tr><td style="font-weight:bold;vertical-align:top;">http_cookie</td><td style="vertical-align:top;">:</td><td><div>__ngDebug=false; session_id_tenant=127.0.0.1-8cd91da1-2cc9-4922-bd90-f8b2d96676a3; session_id_ang2py=127.0.0.1-40ca869b-7d99-490a-b8e1-3560e6ecc711; session_id_admin=127.0.0.1-757acde6-f1bd-4df6-ad89-b9e1fd57b269</div></td></tr><tr><td style="font-weight:bold;vertical-align:top;">http_host</td><td style="vertical-align:top;">:</td><td><div>localhost:8000</div></td></tr><tr><td style="font-weight:bold;vertical-align:top;">http_user_agent</td><td style="vertical-align:top;">:</td><td><div>Mozilla/5.0 (Macintosh; Intel Mac OS X 10_10_0) AppleWebKit/537.36 (KHTML, like Gecko) Chrome/40.0.2214.115 Safari/537.36</div></td></tr><tr><td style="font-weight:bold;vertical-align:top;">is_jython</td><td style="vertical-align:top;">:</td><td><div>False</div></td></tr><tr><td style="font-weight:bold;vertical-align:top;">is_pypy</td><td style="vertical-align:top;">:</td><td><div>False</div></td></tr><tr><td style="font-weight:bold;vertical-align:top;">is_source</td><td style="vertical-align:top;">:</td><td><div>True</div></td></tr><tr><td style="font-weight:bold;vertical-align:top;">local_hosts</td><td style="vertical-align:top;">:</td><td><div><table><tr><td><div>fe80::aa20:66ff:fe11:a1e5%en0</div></td></tr><tr><td><div>::ffff:127.0.0.1</div></td></tr><tr><td><div>::1</div></td></tr><tr><td><div>2.236.16.100</div></td></tr><tr><td><div>Sarutobi.local</div></td></tr><tr><td><div>127.0.0.1</div></td></tr></table></div></td></tr><tr><td style="font-weight:bold;vertical-align:top;">path_info</td><td style="vertical-align:top;">:</td><td><div>/ang2py/plugin_angular/restful/person/list</div></td></tr><tr><td style="font-weight:bold;vertical-align:top;">query_string</td><td style="vertical-align:top;">:</td><td><div></div></td></tr><tr><td style="font-weight:bold;vertical-align:top;">remote_addr</td><td style="vertical-align:top;">:</td><td><div>127.0.0.1</div></td></tr><tr><td style="font-weight:bold;vertical-align:top;">remote_port</td><td style="vertical-align:top;">:</td><td><div>59148</div></td></tr><tr><td style="font-weight:bold;vertical-align:top;">request_method</td><td style="vertical-align:top;">:</td><td><div>GET</div></td></tr><tr><td style="font-weight:bold;vertical-align:top;">request_uri</td><td style="vertical-align:top;">:</td><td><div>/ang2py/plugin_angular/restful/person/list</div></td></tr><tr><td style="font-weight:bold;vertical-align:top;">script_name</td><td style="vertical-align:top;">:</td><td><div></div></td></tr><tr><td style="font-weight:bold;vertical-align:top;">server_name</td><td style="vertical-align:top;">:</td><td><div>Sarutobi.local</div></td></tr><tr><td style="font-weight:bold;vertical-align:top;">server_port</td><td style="vertical-align:top;">:</td><td><div>8000</div></td></tr><tr><td style="font-weight:bold;vertical-align:top;">server_protocol</td><td style="vertical-align:top;">:</td><td><div>HTTP/1.1</div></td></tr><tr><td style="font-weight:bold;vertical-align:top;">server_software</td><td style="vertical-align:top;">:</td><td><div>Rocket 1.2.6</div></td></tr><tr><td style="font-weight:bold;vertical-align:top;">web2py_path</td><td style="vertical-align:top;">:</td><td><div>/Users/nihil/PycharmProjects/untitled/web2py</div></td></tr><tr><td style="font-weight:bold;vertical-align:top;">web2py_version</td><td style="vertical-align:top;">:</td><td><div>2.9.12-stable+timestamp.2015.01.17.06.11.03</div></td></tr><tr><td style="font-weight:bold;vertical-align:top;">wsgi.errors</td><td style="vertical-align:top;">:</td><td><div>&lt;open file &#x27;&lt;stderr&gt;&#x27;, mode &#x27;w&#x27; at 0x10df261e0&gt;</div></td></tr><tr><td style="font-weight:bold;vertical-align:top;">wsgi.file_wrapper</td><td style="vertical-align:top;">:</td><td><div>&lt;class wsgiref.util.FileWrapper at 0x110c39a78&gt;</div></td></tr><tr><td style="font-weight:bold;vertical-align:top;">wsgi.input</td><td style="vertical-align:top;">:</td><td><div>&lt;socket._fileobject object at 0x117902dd0&gt;</div></td></tr><tr><td style="font-weight:bold;vertical-align:top;">wsgi.multiprocess</td><td style="vertical-align:top;">:</td><td><div>False</div></td></tr><tr><td style="font-weight:bold;vertical-align:top;">wsgi.multithread</td><td style="vertical-align:top;">:</td><td><div>True</div></td></tr><tr><td style="font-weight:bold;vertical-align:top;">wsgi.run_once</td><td style="vertical-align:top;">:</td><td><div>False</div></td></tr><tr><td style="font-weight:bold;vertical-align:top;">wsgi.url_scheme</td><td style="vertical-align:top;">:</td><td><div>http</div></td></tr><tr><td style="font-weight:bold;vertical-align:top;">wsgi.version</td><td style="vertical-align:top;">:</td><td><div><table><tr><td><div>1</div></td></tr><tr><td><div>0</div></td></tr></table></div></td></tr><tr><td style="font-weight:bold;vertical-align:top;">wsgi_errors</td><td style="vertical-align:top;">:</td><td><div>&lt;open file &#x27;&lt;stderr&gt;&#x27;, mode &#x27;w&#x27; at 0x10df261e0&gt;</div></td></tr><tr><td style="font-weight:bold;vertical-align:top;">wsgi_file_wrapper</td><td style="vertical-align:top;">:</td><td><div>&lt;class wsgiref.util.FileWrapper at 0x110c39a78&gt;</div></td></tr><tr><td style="font-weight:bold;vertical-align:top;">wsgi_input</td><td style="vertical-align:top;">:</td><td><div>&lt;socket._fileobject object at 0x117902dd0&gt;</div></td></tr><tr><td style="font-weight:bold;vertical-align:top;">wsgi_multiprocess</td><td style="vertical-align:top;">:</td><td><div>False</div></td></tr><tr><td style="font-weight:bold;vertical-align:top;">wsgi_multithread</td><td style="vertical-align:top;">:</td><td><div>True</div></td></tr><tr><td style="font-weight:bold;vertical-align:top;">wsgi_run_once</td><td style="vertical-align:top;">:</td><td><div>False</div></td></tr><tr><td style="font-weight:bold;vertical-align:top;">wsgi_url_scheme</td><td style="vertical-align:top;">:</td><td><div>http</div></td></tr><tr><td style="font-weight:bold;vertical-align:top;">wsgi_version</td><td style="vertical-align:top;">:</td><td><div><table><tr><td><div>1</div></td></tr><tr><td><div>0</div></td></tr></table></div></td></tr></table></div></td></tr><tr><td style="font-weight:bold;vertical-align:top;">extension</td><td style="vertical-align:top;">:</td><td><div>html</div></td></tr><tr><td style="font-weight:bold;vertical-align:top;">folder</td><td style="vertical-align:top;">:</td><td><div>/Users/nihil/PycharmProjects/untitled/web2py/applications/ang2py/</div></td></tr><tr><td style="font-weight:bold;vertical-align:top;">function</td><td style="vertical-align:top;">:</td><td><div>restful</div></td></tr><tr><td style="font-weight:bold;vertical-align:top;">global_settings</td><td style="vertical-align:top;">:</td><td><div><table><tr><td style="font-weight:bold;vertical-align:top;">app_folders</td><td style="vertical-align:top;">:</td><td><div>set([&#x27;/Users/nihil/PycharmProjects/untitled/web2py/applications/admin/&#x27;, &#x27;/Users/nihil/PycharmProjects/untitled/web2py/applications/ang2py/&#x27;])</div></td></tr><tr><td style="font-weight:bold;vertical-align:top;">applications_parent</td><td style="vertical-align:top;">:</td><td><div>/Users/nihil/PycharmProjects/untitled/web2py</div></td></tr><tr><td style="font-weight:bold;vertical-align:top;">cmd_args</td><td style="vertical-align:top;">:</td><td><div><table></table></div></td></tr><tr><td style="font-weight:bold;vertical-align:top;">cmd_options</td><td style="vertical-align:top;">:</td><td><div>&lt;Values at 0x110c9e1b8: {&#x27;verbose&#x27;: False, &#x27;ip&#x27;: &#x27;0.0.0.0&#x27;, &#x27;debuglevel&#x27;: 30, &#x27;with_scheduler&#x27;: False, &#x27;ips&#x27;: [&#x27;fe80::aa20:66ff:fe11:a1e5%en0&#x27;, &#x27;2.236.16.100&#x27;], &#x27;shutdown_timeout&#x27;: 5, &#x27;taskbar&#x27;: False, &#x27;with_coverage&#x27;: False, &#x27;scheduler_groups&#x27;: None, &#x27;port&#x27;: 8000, &#x27;maxthreads&#x27;: None, &#x27;softcron&#x27;: False, &#x27;server_name&#x27;: &#x27;Sarutobi.local&#x27;, &#x27;bpython&#x27;: False, &#x27;nogui&#x27;: False, &#x27;pid_filename&#x27;: &#x27;httpserver.pid&#x27;, &#x27;extcron&#x27;: False, &#x27;runcron&#x27;: False, &#x27;run_system_tests&#x27;: False, &#x27;test&#x27;: None, &#x27;folder&#x27;: &#x27;/Users/nihil/PycharmProjects/untitled/web2py&#x27;, &#x27;config&#x27;: &#x27;&#x27;, &#x27;minthreads&#x27;: 20, &#x27;shell&#x27;: None, &#x27;run&#x27;: &#x27;&#x27;, &#x27;log_filename&#x27;: &#x27;httpserver.log&#x27;, &#x27;profiler_dir&#x27;: None, &#x27;args&#x27;: [&#x27;&#x27;], &#x27;socket_timeout&#x27;: 5, &#x27;ssl_ca_certificate&#x27;: None, &#x27;scheduler&#x27;: None, &#x27;interfaces&#x27;: None, &#x27;ssl_private_key&#x27;: &#x27;&#x27;, &#x27;gae&#x27;: None, &#x27;password&#x27;: &#x27;pippo&#x27;, &#x27;request_queue_size&#x27;: 5, &#x27;ssl_certificate&#x27;: &#x27;&#x27;, &#x27;cronjob&#x27;: False, &#x27;numthreads&#x27;: 20, &#x27;quiet&#x27;: False, &#x27;import_models&#x27;: False, &#x27;timeout&#x27;: 10, &#x27;plain&#x27;: False, &#x27;nobanner&#x27;: False}&gt;</div></td></tr><tr><td style="font-weight:bold;vertical-align:top;">db_sessions</td><td style="vertical-align:top;">:</td><td><div>set([])</div></td></tr><tr><td style="font-weight:bold;vertical-align:top;">debugging</td><td style="vertical-align:top;">:</td><td><div>False</div></td></tr><tr><td style="font-weight:bold;vertical-align:top;">gluon_parent</td><td style="vertical-align:top;">:</td><td><div>/Users/nihil/PycharmProjects/untitled/web2py</div></td></tr><tr><td style="font-weight:bold;vertical-align:top;">is_jython</td><td style="vertical-align:top;">:</td><td><div>False</div></td></tr><tr><td style="font-weight:bold;vertical-align:top;">is_pypy</td><td style="vertical-align:top;">:</td><td><div>False</div></td></tr><tr><td style="font-weight:bold;vertical-align:top;">is_source</td><td style="vertical-align:top;">:</td><td><div>True</div></td></tr><tr><td style="font-weight:bold;vertical-align:top;">local_hosts</td><td style="vertical-align:top;">:</td><td><div><table><tr><td><div>fe80::aa20:66ff:fe11:a1e5%en0</div></td></tr><tr><td><div>::ffff:127.0.0.1</div></td></tr><tr><td><div>::1</div></td></tr><tr><td><div>2.236.16.100</div></td></tr><tr><td><div>Sarutobi.local</div></td></tr><tr><td><div>127.0.0.1</div></td></tr></table></div></td></tr><tr><td style="font-weight:bold;vertical-align:top;">web2py_version</td><td style="vertical-align:top;">:</td><td><div>2.9.12-stable+timestamp.2015.01.17.06.11.03</div></td></tr></table></div></td></tr><tr><td style="font-weight:bold;vertical-align:top;">is_https</td><td style="vertical-align:top;">:</td><td><div>False</div></td></tr><tr><td style="font-weight:bold;vertical-align:top;">is_local</td><td style="vertical-align:top;">:</td><td><div>True</div></td></tr><tr><td style="font-weight:bold;vertical-align:top;">is_restful</td><td style="vertical-align:top;">:</td><td><div>False</div></td></tr><tr><td style="font-weight:bold;vertical-align:top;">is_sheduler</td><td style="vertical-align:top;">:</td><td><div>None</div></td></tr><tr><td style="font-weight:bold;vertical-align:top;">is_shell</td><td style="vertical-align:top;">:</td><td><div>None</div></td></tr><tr><td style="font-weight:bold;vertical-align:top;">now</td><td style="vertical-align:top;">:</td><td><div>datetime.datetime(2015, 2, 26, 18, 10, 31, 533671)</div></td></tr><tr><td style="font-weight:bold;vertical-align:top;">raw_args</td><td style="vertical-align:top;">:</td><td><div>person/list</div></td></tr><tr><td style="font-weight:bold;vertical-align:top;">raw_extension</td><td style="vertical-align:top;">:</td><td><div>None</div></td></tr><tr><td style="font-weight:bold;vertical-align:top;">url</td><td style="vertical-align:top;">:</td><td><div>/ang2py/plugin_angular/restful/person/list</div></td></tr><tr><td style="font-weight:bold;vertical-align:top;">utcnow</td><td style="vertical-align:top;">:</td><td><div>datetime.datetime(2015, 2, 26, 17, 10, 31, 533682)</div></td></tr><tr><td style="font-weight:bold;vertical-align:top;">uuid</td><td style="vertical-align:top;">:</td><td><div>ang2py/127.0.0.1.2015-02-26.18-10-31.20bc1dab-01bd-4a35-a184-7541a759a30a</div></td></tr><tr><td style="font-weight:bold;vertical-align:top;">wsgi</td><td style="vertical-align:top;">:</td><td><div>&lt;gluon.main.LazyWSGI object at 0x1178dfe50&gt;</div></td></tr></table></div>'
tRp58
sS'frames'
p59
(lp60
(dp61
S'file'
p62
S'/Users/nihil/PycharmProjects/untitled/web2py/applications/ang2py/controllers/plugin_angular.py'
p63
sS'dump'
p64
(dp65
S'plugin_angular'
p66
S'undefined'
p67
sS'Message'
p68
S"<class 'applications.ang2py.modules.plugin_angular.Message'>"
p69
sS'ValidatorSerializer'
p70
g67
sS'ResourceManager'
p71
S"<class 'applications.ang2py.modules.plugin_angular.ResourceManager'>"
p72
sS'jsoned'
p73
S'<function jsoned>'
p74
ssS'lnum'
p75
I3
sS'lines'
p76
(dp77
I2
S''
sI3
S'from plugin_angular import jsoned, Message, ResourceManager, ValidatorSerializer'
p78
sI4
S'from operator import isSequenceType'
p79
sI5
S'from itertools import chain, imap'
p80
sI6
S''
sI7
S''
sI8
S''
sI9
S''
sI10
S'@jsoned'
p81
sI11
S'def model():'
p82
ssS'call'
p83
S'()'
p84
sS'func'
p85
S'<module>'
p86
sasS'pyver'
p87
S'Python 2.7.6: /usr/local/opt/python/bin/python2.7 (prefix: /usr/local/Cellar/python/2.7.6_1/Frameworks/Python.framework/Versions/2.7)'
p88
sS'session'
p89
g57
(S's\x1a\x00\x00\x00<div><table></table></div>'
tRp90
sS'etype'
p91
S"<type 'exceptions.ImportError'>"
p92
sS'date'
p93
S'Thu Feb 26 18:10:31 2015'
p94
sS'response'
p95
g57
(S's\xd32\x00\x00<div><table><tr><td style="font-weight:bold;vertical-align:top;">body</td><td style="vertical-align:top;">:</td><td><div>&lt;cStringIO.StringO object at 0x110d7ee30&gt;</div></td></tr><tr><td style="font-weight:bold;vertical-align:top;">cookies</td><td style="vertical-align:top;">:</td><td><div><table><tr><td style="font-weight:bold;vertical-align:top;">session_id_ang2py</td><td style="vertical-align:top;">:</td><td><div>127.0.0.1-40ca869b-7d99-490a-b8e1-3560e6ecc711<table><tr><td style="font-weight:bold;vertical-align:top;">comment</td><td style="vertical-align:top;">:</td><td><div></div></td></tr><tr><td style="font-weight:bold;vertical-align:top;">domain</td><td style="vertical-align:top;">:</td><td><div></div></td></tr><tr><td style="font-weight:bold;vertical-align:top;">expires</td><td style="vertical-align:top;">:</td><td><div></div></td></tr><tr><td style="font-weight:bold;vertical-align:top;">httponly</td><td style="vertical-align:top;">:</td><td><div></div></td></tr><tr><td style="font-weight:bold;vertical-align:top;">max-age</td><td style="vertical-align:top;">:</td><td><div></div></td></tr><tr><td style="font-weight:bold;vertical-align:top;">path</td><td style="vertical-align:top;">:</td><td><div>/</div></td></tr><tr><td style="font-weight:bold;vertical-align:top;">secure</td><td style="vertical-align:top;">:</td><td><div></div></td></tr><tr><td style="font-weight:bold;vertical-align:top;">version</td><td style="vertical-align:top;">:</td><td><div></div></td></tr></table></div></td></tr></table></div></td></tr><tr><td style="font-weight:bold;vertical-align:top;">delimiters</td><td style="vertical-align:top;">:</td><td><div><table><tr><td><div>{{</div></td></tr><tr><td><div>}}</div></td></tr></table></div></td></tr><tr><td style="font-weight:bold;vertical-align:top;">files</td><td style="vertical-align:top;">:</td><td><div><table></table></div></td></tr><tr><td style="font-weight:bold;vertical-align:top;">flash</td><td style="vertical-align:top;">:</td><td><div></div></td></tr><tr><td style="font-weight:bold;vertical-align:top;">form_label_separator</td><td style="vertical-align:top;">:</td><td><div>: </div></td></tr><tr><td style="font-weight:bold;vertical-align:top;">formstyle</td><td style="vertical-align:top;">:</td><td><div>table3cols</div></td></tr><tr><td style="font-weight:bold;vertical-align:top;">generic_patterns</td><td style="vertical-align:top;">:</td><td><div><table><tr><td><div>*</div></td></tr></table></div></td></tr><tr><td style="font-weight:bold;vertical-align:top;">google_analytics_id</td><td style="vertical-align:top;">:</td><td><div>None</div></td></tr><tr><td style="font-weight:bold;vertical-align:top;">headers</td><td style="vertical-align:top;">:</td><td><div><table><tr><td style="font-weight:bold;vertical-align:top;">X-Powered-By</td><td style="vertical-align:top;">:</td><td><div>web2py</div></td></tr></table></div></td></tr><tr><td style="font-weight:bold;vertical-align:top;">logo</td><td style="vertical-align:top;">:</td><td><div><a class="brand" href="http://www.web2py.com/"><b>web<span>2</span>py</b>&trade;&nbsp;</a></div></td></tr><tr><td style="font-weight:bold;vertical-align:top;">menu</td><td style="vertical-align:top;">:</td><td><div><table><tr><td><div><table><tr><td><div>Home</div></td></tr><tr><td><div>False</div></td></tr><tr><td><div>/ang2py/default/index</div></td></tr><tr><td><div><table></table></div></td></tr></table></div></td></tr><tr><td><div><table><tr><td><div><span class="highlighted">web2py</span></div></td></tr><tr><td><div>False</div></td></tr><tr><td><div>http://web2py.com</div></td></tr><tr><td><div><table><tr><td><div><table><tr><td><div>My Sites</div></td></tr><tr><td><div>False</div></td></tr><tr><td><div>/admin/default/site</div></td></tr></table></div></td></tr><tr><td><div><table><tr><td><div>This App</div></td></tr><tr><td><div>False</div></td></tr><tr><td><div>/admin/default/design/ang2py</div></td></tr><tr><td><div>[(&lt;lazyT &#x27;Controller&#x27;&gt;, False, &#x27;/admin/default/edit/ang2py/controllers/plugin_angular.py&#x27;), (&lt;lazyT &#x27;View&#x27;&gt;, False, &#x27;/admin/default/edit/ang2py/views/plugin_angular/restful.html&#x27;), (&lt;lazyT &#x27;Layout&#x27;&gt;, False, &#x27;/admin/default/edit/ang2py/views/layout.html&#x27;), (&lt;lazyT &#x27;Stylesheet&#x27;&gt;, False, &#x27;/admin/default/edit/ang2py/static/css/web2py.css&#x27;), (&lt;lazyT &#x27;DB Model&#x27;&gt;, False, &#x27;/admin/default/edit/ang2py/models/db.py&#x27;), (&lt;lazyT &#x27;Menu Model&#x27;&gt;, False, &#x27;/admin/default/edit/ang2py/models/menu.py&#x27;), (&lt;lazyT &#x27;Database&#x27;&gt;, False, &#x27;/ang2py/appadmin/index&#x27;), (&lt;lazyT &#x27;Errors&#x27;&gt;, False, &#x27;/admin/default/errors/ang2py&#x27;), (&lt;lazyT &#x27;About&#x27;&gt;, False, &#x27;/admin/default/about/ang2py&#x27;)]</div></td></tr></table></div></td></tr><tr><td><div><table><tr><td><div>web2py.com</div></td></tr><tr><td><div>False</div></td></tr><tr><td><div>http://www.web2py.com</div></td></tr><tr><td><div>[(&lt;lazyT &#x27;Download&#x27;&gt;, False, &#x27;http://www.web2py.com/examples/default/download&#x27;), (&lt;lazyT &#x27;Support&#x27;&gt;, False, &#x27;http://www.web2py.com/examples/default/support&#x27;), (&lt;lazyT &#x27;Demo&#x27;&gt;, False, &#x27;http://web2py.com/demo_admin&#x27;), (&lt;lazyT &#x27;Quick Examples&#x27;&gt;, False, &#x27;http://web2py.com/examples/default/examples&#x27;), (&lt;lazyT &#x27;FAQ&#x27;&gt;, False, &#x27;http://web2py.com/AlterEgo&#x27;), (&lt;lazyT &#x27;Videos&#x27;&gt;, False, &#x27;http://www.web2py.com/examples/default/videos/&#x27;), (&lt;lazyT &#x27;Free Applications&#x27;&gt;, False, &#x27;http://web2py.com/appliances&#x27;), (&lt;lazyT &#x27;Plugins&#x27;&gt;, False, &#x27;http://web2py.com/plugins&#x27;), (&lt;lazyT &#x27;Layouts&#x27;&gt;, False, &#x27;http://web2py.com/layouts&#x27;), (&lt;lazyT &#x27;Recipes&#x27;&gt;, False, &#x27;http://web2pyslices.com/&#x27;), (&lt;lazyT &#x27;Semantic&#x27;&gt;, False, &#x27;http://web2py.com/semantic&#x27;)]</div></td></tr></table></div></td></tr><tr><td><div><table><tr><td><div>Documentazione</div></td></tr><tr><td><div>False</div></td></tr><tr><td><div>http://www.web2py.com/book</div></td></tr><tr><td><div>[(&lt;lazyT &#x27;Preface&#x27;&gt;, False, &#x27;http://www.web2py.com/book/default/chapter/00&#x27;), (&lt;lazyT &#x27;Introduction&#x27;&gt;, False, &#x27;http://www.web2py.com/book/default/chapter/01&#x27;), (&lt;lazyT &#x27;Python&#x27;&gt;, False, &#x27;http://www.web2py.com/book/default/chapter/02&#x27;), (&lt;lazyT &#x27;Overview&#x27;&gt;, False, &#x27;http://www.web2py.com/book/default/chapter/03&#x27;), (&lt;lazyT &#x27;The Core&#x27;&gt;, False, &#x27;http://www.web2py.com/book/default/chapter/04&#x27;), (&lt;lazyT &#x27;The Views&#x27;&gt;, False, &#x27;http://www.web2py.com/book/default/chapter/05&#x27;), (&lt;lazyT &#x27;Database&#x27;&gt;, False, &#x27;http://www.web2py.com/book/default/chapter/06&#x27;), (&lt;lazyT &#x27;Forms and Validators&#x27;&gt;, False, &#x27;http://www.web2py.com/book/default/chapter/07&#x27;), (&lt;lazyT &#x27;Email and SMS&#x27;&gt;, False, &#x27;http://www.web2py.com/book/default/chapter/08&#x27;), (&lt;lazyT &#x27;Access Control&#x27;&gt;, False, &#x27;http://www.web2py.com/book/default/chapter/09&#x27;), (&lt;lazyT &#x27;Services&#x27;&gt;, False, &#x27;http://www.web2py.com/book/default/chapter/10&#x27;), (&lt;lazyT &#x27;Ajax Recipes&#x27;&gt;, False, &#x27;http://www.web2py.com/book/default/chapter/11&#x27;), (&lt;lazyT &#x27;Components and Plugins&#x27;&gt;, False, &#x27;http://www.web2py.com/book/default/chapter/12&#x27;), (&lt;lazyT &#x27;Deployment Recipes&#x27;&gt;, False, &#x27;http://www.web2py.com/book/default/chapter/13&#x27;), (&lt;lazyT &#x27;Other Recipes&#x27;&gt;, False, &#x27;http://www.web2py.com/book/default/chapter/14&#x27;), (&lt;lazyT &#x27;Buy this book&#x27;&gt;, False, &#x27;http://stores.lulu.com/web2py&#x27;)]</div></td></tr></table></div></td></tr><tr><td><div><table><tr><td><div>Community</div></td></tr><tr><td><div>False</div></td></tr><tr><td><div>None</div></td></tr><tr><td><div>[(&lt;lazyT &#x27;Groups&#x27;&gt;, False, &#x27;http://www.web2py.com/examples/default/usergroups&#x27;), (&lt;lazyT &#x27;Twitter&#x27;&gt;, False, &#x27;http://twitter.com/web2py&#x27;), (&lt;lazyT &#x27;Live Chat&#x27;&gt;, False, &#x27;http://webchat.freenode.net/?channels=web2py&#x27;)]</div></td></tr></table></div></td></tr><tr><td><div><table><tr><td><div>Plugins</div></td></tr><tr><td><div>False</div></td></tr><tr><td><div>None</div></td></tr><tr><td><div>[(&#x27;plugin_wiki&#x27;, False, &#x27;http://web2py.com/examples/default/download&#x27;), (&lt;lazyT &#x27;Other Plugins&#x27;&gt;, False, &#x27;http://web2py.com/plugins&#x27;), (&lt;lazyT &#x27;Layout Plugins&#x27;&gt;, False, &#x27;http://web2py.com/layouts&#x27;)]</div></td></tr></table></div></td></tr></table></div></td></tr></table></div></td></tr></table></div></td></tr><tr><td style="font-weight:bold;vertical-align:top;">meta</td><td style="vertical-align:top;">:</td><td><div><table><tr><td style="font-weight:bold;vertical-align:top;">author</td><td style="vertical-align:top;">:</td><td><div>Your Name &lt;you@example.com&gt;</div></td></tr><tr><td style="font-weight:bold;vertical-align:top;">generator</td><td style="vertical-align:top;">:</td><td><div>Web2py Web Framework</div></td></tr><tr><td style="font-weight:bold;vertical-align:top;">keywords</td><td style="vertical-align:top;">:</td><td><div>web2py, python, framework</div></td></tr></table></div></td></tr><tr><td style="font-weight:bold;vertical-align:top;">models_to_run</td><td style="vertical-align:top;">:</td><td><div><table><tr><td><div>^\\w+\\.py$</div></td></tr><tr><td><div>^plugin_angular/\\w+\\.py$</div></td></tr><tr><td><div>^plugin_angular/restful/\\w+\\.py$</div></td></tr></table></div></td></tr><tr><td style="font-weight:bold;vertical-align:top;">postprocessing</td><td style="vertical-align:top;">:</td><td><div><table></table></div></td></tr><tr><td style="font-weight:bold;vertical-align:top;">session_client</td><td style="vertical-align:top;">:</td><td><div>127.0.0.1</div></td></tr><tr><td style="font-weight:bold;vertical-align:top;">session_cookie_compression_level</td><td style="vertical-align:top;">:</td><td><div>None</div></td></tr><tr><td style="font-weight:bold;vertical-align:top;">session_cookie_expires</td><td style="vertical-align:top;">:</td><td><div>None</div></td></tr><tr><td style="font-weight:bold;vertical-align:top;">session_cookie_key</td><td style="vertical-align:top;">:</td><td><div>None</div></td></tr><tr><td style="font-weight:bold;vertical-align:top;">session_data_name</td><td style="vertical-align:top;">:</td><td><div>session_data_ang2py</div></td></tr><tr><td style="font-weight:bold;vertical-align:top;">session_file</td><td style="vertical-align:top;">:</td><td><div>&lt;open file &#x27;/Users/nihil/PycharmProjects/untitled/web2py/applications/ang2py/sessions/18b/1f0/127.0.0.1-40ca869b-7d99-490a-b8e1-3560e6ecc711&#x27;, mode &#x27;rb+&#x27; at 0x1178b40c0&gt;</div></td></tr><tr><td style="font-weight:bold;vertical-align:top;">session_filename</td><td style="vertical-align:top;">:</td><td><div>/Users/nihil/PycharmProjects/untitled/web2py/applications/ang2py/sessions/127.0.0.1-40ca869b-7d99-490a-b8e1-3560e6ecc711</div></td></tr><tr><td style="font-weight:bold;vertical-align:top;">session_hash</td><td style="vertical-align:top;">:</td><td><div>0eb91588062d7ec547d1846f0b253109</div></td></tr><tr><td style="font-weight:bold;vertical-align:top;">session_id</td><td style="vertical-align:top;">:</td><td><div>127.0.0.1-40ca869b-7d99-490a-b8e1-3560e6ecc711</div></td></tr><tr><td style="font-weight:bold;vertical-align:top;">session_id_name</td><td style="vertical-align:top;">:</td><td><div>session_id_ang2py</div></td></tr><tr><td style="font-weight:bold;vertical-align:top;">session_locked</td><td style="vertical-align:top;">:</td><td><div>True</div></td></tr><tr><td style="font-weight:bold;vertical-align:top;">session_masterapp</td><td style="vertical-align:top;">:</td><td><div>ang2py</div></td></tr><tr><td style="font-weight:bold;vertical-align:top;">session_new</td><td style="vertical-align:top;">:</td><td><div>False</div></td></tr><tr><td style="font-weight:bold;vertical-align:top;">session_storage_type</td><td style="vertical-align:top;">:</td><td><div>file</div></td></tr><tr><td style="font-weight:bold;vertical-align:top;">status</td><td style="vertical-align:top;">:</td><td><div>200</div></td></tr><tr><td style="font-weight:bold;vertical-align:top;">subtitle</td><td style="vertical-align:top;">:</td><td><div></div></td></tr><tr><td style="font-weight:bold;vertical-align:top;">title</td><td style="vertical-align:top;">:</td><td><div>Ang2Py</div></td></tr><tr><td style="font-weight:bold;vertical-align:top;">view</td><td style="vertical-align:top;">:</td><td><div>plugin_angular/restful.html</div></td></tr></table></div>'
tRp96
sS'locals'
p97
(dp98
S'Service'
p99
S"<class 'gluon.tools.Service'>"
p100
sS'OBJECT'
p101
S"<class 'gluon.html.OBJECT'>"
p102
sS'SQLDB'
p103
S"<class 'gluon.dal.base.DAL'>"
p104
sg89
S"<Storage {'_user_agent': <Storage {'os': <Storag...version': '40.0.2214.115', 'name': 'Chrome'}>}>}>"
p105
sS'LINK'
p106
S"<class 'gluon.html.LINK'>"
p107
sS'BR'
p108
S"<class 'gluon.html.BR'>"
p109
sS'local_import'
p110
S'<function <lambda>>'
p111
sS'OPTGROUP'
p112
S"<class 'gluon.html.OPTGROUP'>"
p113
sS'LI'
p114
S"<class 'gluon.html.LI'>"
p115
sS'PRE'
p116
S"<class 'gluon.html.PRE'>"
p117
sS'IS_INT_IN_RANGE'
p118
S"<class 'gluon.validators.IS_INT_IN_RANGE'>"
p119
sS'IS_LOWER'
p120
S"<class 'gluon.validators.IS_LOWER'>"
p121
sS'IS_STRONG'
p122
S"<class 'gluon.validators.IS_STRONG'>"
p123
sS'cache'
p124
S'<gluon.cache.Cache object>'
p125
sS'IS_IN_DB'
p126
S"<class 'gluon.validators.IS_IN_DB'>"
p127
sS'TAG'
p128
S'<gluon.html.__TAG__ object>'
p129
sS'SQLField'
p130
S"<class 'gluon.dal.objects.Field'>"
p131
sS'mail'
p132
S'<gluon.tools.Mail object>'
p133
sS'BODY'
p134
S"<class 'gluon.html.BODY'>"
p135
sS'IS_DATE_IN_RANGE'
p136
S"<class 'gluon.validators.IS_DATE_IN_RANGE'>"
p137
sS'TH'
p138
S"<class 'gluon.html.TH'>"
p139
sS'URL'
p140
S'<function URL>'
p141
sS'__file__'
p142
S"'/Users/nihil/PycharmProjects/untitled/web2py/applications/ang2py/controllers/plugin_angular.py'"
p143
sS'db'
p144
S'<DAL uri="sqlite://storage.sqlite">'
p145
sS'auth'
p146
S'<gluon.tools.Auth object>'
p147
sS'P'
S"<class 'gluon.html.P'>"
p148
sS'TFOOT'
p149
S"<class 'gluon.html.TFOOT'>"
p150
sS'XHTML'
p151
S"<class 'gluon.html.XHTML'>"
p152
sS'ON'
p153
S'True'
p154
sS'OL'
p155
S"<class 'gluon.html.OL'>"
p156
sS'ResourceManager'
p157
S"<class 'applications.ang2py.modules.plugin_angular.ResourceManager'>"
p158
sS'TEXTAREA'
p159
S"<class 'gluon.html.TEXTAREA'>"
p160
sS'cached'
p161
S'<function cached>'
p162
sS'MENU'
p163
S"<class 'gluon.html.MENU'>"
p164
sS'debug'
p165
g154
sS'LOAD'
p166
S'<function LOAD>'
p167
sS'CODE'
p168
S"<class 'gluon.html.CODE'>"
p169
sS'HTTP'
p170
S"<class 'gluon.http.HTTP'>"
p171
sS'HR'
p172
S"<class 'gluon.html.HR'>"
p173
sS'IS_DATETIME'
p174
S"<class 'gluon.validators.IS_DATETIME'>"
p175
sS'HEAD'
p176
S"<class 'gluon.html.HEAD'>"
p177
sS'LABEL'
p178
S"<class 'gluon.html.LABEL'>"
p179
sS'CLEANUP'
p180
S"<class 'gluon.validators.CLEANUP'>"
p181
sS'plugins'
p182
S'<gluon.tools.PluginManager object>'
p183
sS'SELECT'
p184
S"<class 'gluon.html.SELECT'>"
p185
sS'CENTER'
p186
S"<class 'gluon.html.CENTER'>"
p187
sS'Auth'
p188
S"<class 'gluon.tools.Auth'>"
p189
sS'DEVELOPMENT_MENU'
p190
g154
sS'__builtins__'
p191
S"{'ArithmeticError': <type 'exceptions.ArithmeticError'>, 'AssertionError': <type 'exceptions.AssertionError'>, 'AttributeError': <type 'exceptions.AttributeError'>, 'BaseException': <type 'exceptions.BaseException'>, 'BufferError': <type 'exceptions.BufferError'>, 'BytesWarning': <type 'exceptions.BytesWarning'>, 'DeprecationWarning': <type 'exceptions.DeprecationWarning'>, 'EOFError': <type 'exceptions.EOFError'>, 'Ellipsis': Ellipsis, 'EnvironmentError': <type 'exceptions.EnvironmentError'>, ...}"
p192
sS'HTML'
p193
S"<class 'gluon.html.HTML'>"
p194
sS'SQLFORM'
p195
S"<class 'gluon.sqlhtml.SQLFORM'>"
p196
sS'EM'
p197
S"<class 'gluon.html.EM'>"
p198
sS'redirect'
p199
S'<function redirect>'
p200
sS'FIELDSET'
p201
S"<class 'gluon.html.FIELDSET'>"
p202
sS'IS_EQUAL_TO'
p203
S"<class 'gluon.validators.IS_EQUAL_TO'>"
p204
sS'embed64'
p205
S'<function embed64>'
p206
sS'IS_LIST_OF'
p207
S"<class 'gluon.validators.IS_LIST_OF'>"
p208
sS'__name__'
p209
S"'__restricted__'"
p210
sS'EMBED'
p211
S"<class 'gluon.html.EMBED'>"
p212
sS'_'
S'<function _>'
p213
sS'FORM'
p214
S"<class 'gluon.html.FORM'>"
p215
sS'H6'
p216
S"<class 'gluon.html.H6'>"
p217
sS'H2'
p218
S"<class 'gluon.html.H2'>"
p219
sS'H3'
p220
S"<class 'gluon.html.H3'>"
p221
sS'BUTTON'
p222
S"<class 'gluon.html.BUTTON'>"
p223
sS'H1'
p224
S"<class 'gluon.html.H1'>"
p225
sS'base_table'
p226
S'<Table tabella_base (id,name,title,created_by,created_on,updated_by,updated_on)>'
p227
sS'H4'
p228
S"<class 'gluon.html.H4'>"
p229
sS'H5'
p230
S"<class 'gluon.html.H5'>"
p231
sS'UL'
p232
S"<class 'gluon.html.UL'>"
p233
sS'IS_UPPER'
p234
S"<class 'gluon.validators.IS_UPPER'>"
p235
sS'xmlescape'
p236
S'<function xmlescape>'
p237
sS'Message'
p238
S"<class 'applications.ang2py.modules.plugin_angular.Message'>"
p239
sS'IS_TIME'
p240
S"<class 'gluon.validators.IS_TIME'>"
p241
sS'OPTION'
p242
S"<class 'gluon.html.OPTION'>"
p243
sS'TITLE'
p244
S"<class 'gluon.html.TITLE'>"
p245
sS'CRYPT'
p246
S"<class 'gluon.validators.CRYPT'>"
p247
sS'IS_EMPTY_OR'
p248
S"<class 'gluon.validators.IS_EMPTY_OR'>"
p249
sS'MARKMIN'
p250
S"<class 'gluon.html.MARKMIN'>"
p251
sS'INPUT'
p252
S"<class 'gluon.html.INPUT'>"
p253
sS'STRONG'
p254
S"<class 'gluon.html.STRONG'>"
p255
sS'COL'
p256
S"<class 'gluon.html.COL'>"
p257
sS'service'
p258
S'<gluon.tools.Service object>'
p259
sS'SCRIPT'
p260
S"<class 'gluon.html.SCRIPT'>"
p261
sS'budb'
p262
S'<DAL uri="sqlite://backup.sqlite">'
p263
sS'TABLE'
p264
S"<class 'gluon.html.TABLE'>"
p265
sS'IS_IPV4'
p266
S"<class 'gluon.validators.IS_IPV4'>"
p267
sS'IS_LENGTH'
p268
S"<class 'gluon.validators.IS_LENGTH'>"
p269
sS'IS_IPV6'
p270
S"<class 'gluon.validators.IS_IPV6'>"
p271
sS'XML'
p272
S"<class 'gluon.html.XML'>"
p273
sS'B'
S"<class 'gluon.html.B'>"
p274
sS'IMG'
p275
S"<class 'gluon.html.IMG'>"
p276
sS'SQLTABLE'
p277
S"<class 'gluon.sqlhtml.SQLTABLE'>"
p278
sS'IS_MATCH'
p279
S"<class 'gluon.validators.IS_MATCH'>"
p280
sS'IS_ALPHANUMERIC'
p281
S"<class 'gluon.validators.IS_ALPHANUMERIC'>"
p282
sS'__author__'
p283
S"'nihil'"
p284
sS'SPAN'
p285
S"<class 'gluon.html.SPAN'>"
p286
sS'IS_JSON'
p287
S"<class 'gluon.validators.IS_JSON'>"
p288
sS'IS_IPADDRESS'
p289
S"<class 'gluon.validators.IS_IPADDRESS'>"
p290
sS'IS_SLUG'
p291
S"<class 'gluon.validators.IS_SLUG'>"
p292
sS'BEAUTIFY'
p293
S"<class 'gluon.html.BEAUTIFY'>"
p294
sS'META'
p295
S"<class 'gluon.html.META'>"
p296
sS'IS_DATE'
p297
S"<class 'gluon.validators.IS_DATE'>"
p298
sS'IS_EMAIL'
p299
S"<class 'gluon.validators.IS_EMAIL'>"
p300
sS'IS_NOT_EMPTY'
p301
S"<class 'gluon.validators.IS_NOT_EMPTY'>"
p302
sg56
S"<Storage {'_vars': None, 'function': 'restful', ...mProjects/untitled/web2py/applications/ang2py/'}>"
p303
sS'resolve_username'
p304
S'<function w>'
p305
sS'TBODY'
p306
S"<class 'gluon.html.TBODY'>"
p307
sS'CAT'
p308
S"<class 'gluon.html.CAT'>"
p309
sS'Field'
p310
S"<class 'gluon.dal.objects.Field'>"
p311
sS'IS_LIST_OF_EMAILS'
p312
S"<class 'gluon.validators.IS_LIST_OF_EMAILS'>"
p313
sS'DIV'
p314
S"<class 'gluon.html.DIV'>"
p315
sS'LEGEND'
p316
S"<class 'gluon.html.LEGEND'>"
p317
sS'TableResource'
p318
S"<class 'applications.ang2py.modules.plugin_angular.TableResource'>"
p319
sS'COLGROUP'
p320
S"<class 'gluon.html.COLGROUP'>"
p321
sS'DAL'
p322
S"<class 'gluon.dal.base.DAL'>"
p323
sS'ASSIGNJS'
p324
S'<function ASSIGNJS>'
p325
sS'TR'
p326
S"<class 'gluon.html.TR'>"
p327
sS'__package__'
p328
S'None'
p329
sS'IFRAME'
p330
S"<class 'gluon.html.IFRAME'>"
p331
sS'TD'
p332
S"<class 'gluon.html.TD'>"
p333
sS'PluginManager'
p334
S"<class 'gluon.tools.PluginManager'>"
p335
sS'IS_URL'
p336
S"<class 'gluon.validators.IS_URL'>"
p337
sS'A'
S"<class 'gluon.html.A'>"
p338
sS'STYLE'
p339
S"<class 'gluon.html.STYLE'>"
p340
sS'IS_DATETIME_IN_RANGE'
p341
S"<class 'gluon.validators.IS_DATETIME_IN_RANGE'>"
p342
sS'IS_IMAGE'
p343
S"<class 'gluon.validators.IS_IMAGE'>"
p344
sS'I'
S"<class 'gluon.html.I'>"
p345
sS'IS_NOT_IN_DB'
p346
S"<class 'gluon.validators.IS_NOT_IN_DB'>"
p347
sg95
S"<Storage {'body': <cStringIO.StringO object at 0...77185f0>, 'view': 'plugin_angular/restful.html'}>"
p348
sS'THEAD'
p349
S"<class 'gluon.html.THEAD'>"
p350
sS'ANY_OF'
p351
S"<class 'gluon.validators.ANY_OF'>"
p352
sS'IS_NULL_OR'
p353
S"<class 'gluon.validators.IS_EMPTY_OR'>"
p354
sS'IS_FLOAT_IN_RANGE'
p355
S"<class 'gluon.validators.IS_FLOAT_IN_RANGE'>"
p356
sS'IS_EXPR'
p357
S"<class 'gluon.validators.IS_EXPR'>"
p358
sS'IS_IN_SET'
p359
S"<class 'gluon.validators.IS_IN_SET'>"
p360
sS'IS_UPLOAD_FILENAME'
p361
S"<class 'gluon.validators.IS_UPLOAD_FILENAME'>"
p362
sS'jsoned'
p363
S'<function jsoned>'
p364
sS'IS_DECIMAL_IN_RANGE'
p365
S"<class 'gluon.validators.IS_DECIMAL_IN_RANGE'>"
p366
sS'TT'
p367
S"<class 'gluon.html.TT'>"
p368
sS'T'
S'<gluon.languages.translator object>'
p369
sssS'traceback'
p370
S'Traceback (most recent call last):\n  File "/Users/nihil/PycharmProjects/untitled/web2py/applications/ang2py/controllers/plugin_angular.py", line 3, in <module>\n    from plugin_angular import jsoned, Message, ResourceManager, ValidatorSerializer\nImportError: cannot import name ValidatorSerializer\n'
p371
s.